target datalayout = "e-m:e-p270:32:32-p271:32:32-p272:64:64-i64:64-i128:128-f80:128-n8:16:32:64-S128"
target triple = "x86_64-pc-linux-gnu"

%struct.AVFilterContext = type { ptr, ptr, ptr, ptr, ptr, i32, ptr, ptr, i32, ptr, ptr, i32, i32, ptr, ptr, ptr, ptr, i32, ptr, i32, i32 }
%struct.EvalContext = type { ptr, ptr, i32, %struct.AVChannelLayout, ptr, i32, i32, i32, i64, ptr, ptr, i32, i64, i64, [6 x double], ptr }
%struct.AVChannelLayout = type { i32, i32, %union.anon.1, ptr }
%union.anon.1 = type { i64 }

@query_formats.sample_fmts = internal constant [2 x i32] [i32 9, i32 -1], align 4

; Function Attrs: nounwind uwtable
define internal i32 @query_formats(ptr noundef %0, ptr noundef %1, ptr noundef %2) #1 {
  %4 = alloca i32, align 4
  %5 = alloca ptr, align 8
  %6 = alloca ptr, align 8
  %7 = alloca ptr, align 8
  %8 = alloca ptr, align 8
  %9 = alloca [2 x %struct.AVChannelLayout], align 16
  %10 = alloca [2 x i32], align 4
  %11 = alloca i32, align 4
  %12 = alloca i32, align 4
  store ptr %0, ptr %5, align 8, !tbaa !4
  store ptr %1, ptr %6, align 8, !tbaa !43
  store ptr %2, ptr %7, align 8, !tbaa !43
  call void @llvm.lifetime.start.p0(i64 8, ptr %8) #9
  %13 = load ptr, ptr %5, align 8, !tbaa !4
  %14 = getelementptr inbounds nuw %struct.AVFilterContext, ptr %13, i32 0, i32 9
  %15 = load ptr, ptr %14, align 8, !tbaa !9
  store ptr %15, ptr %8, align 8, !tbaa !22
  call void @llvm.lifetime.start.p0(i64 48, ptr %9) #9
  %16 = load ptr, ptr %8, align 8, !tbaa !22
  %17 = getelementptr inbounds nuw %struct.EvalContext, ptr %16, i32 0, i32 3
  %18 = getelementptr inbounds nuw %struct.AVChannelLayout, ptr %17, i32 0, i32 1
  %19 = load i32, ptr %18, align 4, !tbaa !34
  %20 = icmp ne i32 %19, 0
  br i1 %20, label %21, label %24

21:                                               ; preds = %3
  %22 = load ptr, ptr %8, align 8, !tbaa !22
  %23 = getelementptr inbounds nuw %struct.EvalContext, ptr %22, i32 0, i32 3
  call void @llvm.memcpy.p0.p0.i64(ptr align 8 %9, ptr align 8 %23, i64 24, i1 false), !tbaa.struct !45
  br label %32

24:                                               ; preds = %3
  %25 = getelementptr inbounds nuw %struct.AVChannelLayout, ptr %9, i32 0, i32 0
  store i32 0, ptr %25, align 8, !tbaa !48
  %26 = getelementptr inbounds nuw %struct.AVChannelLayout, ptr %9, i32 0, i32 1
  %27 = load ptr, ptr %8, align 8, !tbaa !22
  %28 = getelementptr inbounds nuw %struct.EvalContext, ptr %27, i32 0, i32 5
  %29 = load i32, ptr %28, align 8, !tbaa !35
  store i32 %29, ptr %26, align 4, !tbaa !49
  %30 = getelementptr inbounds nuw %struct.AVChannelLayout, ptr %9, i32 0, i32 2
  call void @llvm.memset.p0.i64(ptr align 8 %30, i8 0, i64 8, i1 false)
  %31 = getelementptr inbounds nuw %struct.AVChannelLayout, ptr %9, i32 0, i32 3
  store ptr null, ptr %31, align 8, !tbaa !50
  br label %32

32:                                               ; preds = %24, %21
  %33 = getelementptr inbounds %struct.AVChannelLayout, ptr %9, i64 1
  call void @llvm.memset.p0.i64(ptr align 8 %33, i8 0, i64 24, i1 false)
  call void @llvm.lifetime.start.p0(i64 8, ptr %10) #9
  %34 = load ptr, ptr %8, align 8, !tbaa !22
  %35 = getelementptr inbounds nuw %struct.EvalContext, ptr %34, i32 0, i32 2
  %36 = load i32, ptr %35, align 8, !tbaa !51
  store i32 %36, ptr %10, align 4, !tbaa !24
  %37 = getelementptr inbounds i32, ptr %10, i64 1
  store i32 -1, ptr %37, align 4, !tbaa !24
  call void @llvm.lifetime.start.p0(i64 4, ptr %11) #9
  %38 = load ptr, ptr %5, align 8, !tbaa !4
  %39 = load ptr, ptr %6, align 8, !tbaa !43
  %40 = load ptr, ptr %7, align 8, !tbaa !43
  %41 = call i32 @ff_set_common_formats_from_list2(ptr noundef %38, ptr noundef %39, ptr noundef %40, ptr noundef @query_formats.sample_fmts)
  store i32 %41, ptr %11, align 4, !tbaa !24
  %42 = load i32, ptr %11, align 4, !tbaa !24
  %43 = icmp slt i32 %42, 0
  br i1 %43, label %44, label %46

44:                                               ; preds = %32
  %45 = load i32, ptr %11, align 4, !tbaa !24
  store i32 %45, ptr %4, align 4
  store i32 1, ptr %12, align 4
  br label %62

46:                                               ; preds = %32
  %47 = load ptr, ptr %5, align 8, !tbaa !4
  %48 = load ptr, ptr %6, align 8, !tbaa !43
  %49 = load ptr, ptr %7, align 8, !tbaa !43
  %50 = getelementptr inbounds [2 x %struct.AVChannelLayout], ptr %9, i64 0, i64 0
  %51 = call i32 @ff_set_common_channel_layouts_from_list2(ptr noundef %47, ptr noundef %48, ptr noundef %49, ptr noundef %50)
  store i32 %51, ptr %11, align 4, !tbaa !24
  %52 = load i32, ptr %11, align 4, !tbaa !24
  %53 = icmp slt i32 %52, 0
  br i1 %53, label %54, label %56

54:                                               ; preds = %46
  %55 = load i32, ptr %11, align 4, !tbaa !24
  store i32 %55, ptr %4, align 4
  store i32 1, ptr %12, align 4
  br label %62

56:                                               ; preds = %46
  %57 = load ptr, ptr %5, align 8, !tbaa !4
  %58 = load ptr, ptr %6, align 8, !tbaa !43
  %59 = load ptr, ptr %7, align 8, !tbaa !43
  %60 = getelementptr inbounds [2 x i32], ptr %10, i64 0, i64 0
  %61 = call i32 @ff_set_common_samplerates_from_list2(ptr noundef %57, ptr noundef %58, ptr noundef %59, ptr noundef %60)
  store i32 %61, ptr %4, align 4
  store i32 1, ptr %12, align 4
  br label %62

62:                                               ; preds = %56, %54, %44
  call void @llvm.lifetime.end.p0(i64 4, ptr %11) #9
  call void @llvm.lifetime.end.p0(i64 8, ptr %10) #9
  call void @llvm.lifetime.end.p0(i64 48, ptr %9) #9
  call void @llvm.lifetime.end.p0(i64 8, ptr %8) #9
  %63 = load i32, ptr %4, align 4
  ret i32 %63
}