; Function Attrs: nounwind uwtable
define internal i32 @query_formats(ptr noundef %0, ptr noundef %1, ptr noundef %2) #1 {
  %4 = alloca [2 x %struct.AVChannelLayout], align 16
  %5 = alloca [2 x i32], align 4
  %6 = getelementptr inbounds nuw i8, ptr %0, i64 72
  %7 = load ptr, ptr %6, align 8, !tbaa !4
  call void @llvm.lifetime.start.p0(i64 48, ptr nonnull %4) #11
  %8 = getelementptr inbounds nuw i8, ptr %7, i64 28
  %9 = load i32, ptr %8, align 4, !tbaa !29
  %.not = icmp eq i32 %9, 0
  br i1 %.not, label %12, label %10

10:                                               ; preds = %3
  %11 = getelementptr inbounds nuw i8, ptr %7, i64 24
  call void @llvm.memcpy.p0.p0.i64(ptr noundef nonnull align 16 dereferenceable(24) %4, ptr noundef nonnull align 8 dereferenceable(24) %11, i64 24, i1 false), !tbaa.struct !38
  br label %17

12:                                               ; preds = %3
  store i32 0, ptr %4, align 16, !tbaa !42
  %13 = getelementptr inbounds nuw i8, ptr %4, i64 4
  %14 = getelementptr inbounds nuw i8, ptr %7, i64 56
  %15 = load i32, ptr %14, align 8, !tbaa !30
  store i32 %15, ptr %13, align 4, !tbaa !43
  %16 = getelementptr inbounds nuw i8, ptr %4, i64 8
  call void @llvm.memset.p0.i64(ptr noundef nonnull align 8 dereferenceable(16) %16, i8 0, i64 16, i1 false)
  br label %17

17:                                               ; preds = %12, %10
  %18 = getelementptr inbounds nuw i8, ptr %4, i64 24
  call void @llvm.memset.p0.i64(ptr noundef nonnull align 8 dereferenceable(24) %18, i8 0, i64 24, i1 false)
  call void @llvm.lifetime.start.p0(i64 8, ptr nonnull %5) #11
  %19 = getelementptr inbounds nuw i8, ptr %7, i64 16
  %20 = load i32, ptr %19, align 8, !tbaa !44
  store i32 %20, ptr %5, align 4, !tbaa !39
  %21 = getelementptr inbounds nuw i8, ptr %5, i64 4
  store i32 -1, ptr %21, align 4, !tbaa !39
  %22 = tail call i32 @ff_set_common_formats_from_list2(ptr noundef nonnull %0, ptr noundef %1, ptr noundef %2, ptr noundef nonnull @query_formats.sample_fmts) #11
  %23 = icmp slt i32 %22, 0
  br i1 %23, label %29, label %24

24:                                               ; preds = %17
  %25 = call i32 @ff_set_common_channel_layouts_from_list2(ptr noundef nonnull %0, ptr noundef %1, ptr noundef %2, ptr noundef nonnull %4) #11
  %26 = icmp slt i32 %25, 0
  br i1 %26, label %29, label %27

27:                                               ; preds = %24
  %28 = call i32 @ff_set_common_samplerates_from_list2(ptr noundef nonnull %0, ptr noundef %1, ptr noundef %2, ptr noundef nonnull %5) #11
  br label %29

29:                                               ; preds = %24, %17, %27
  %.0 = phi i32 [ %28, %27 ], [ %22, %17 ], [ %25, %24 ]
  call void @llvm.lifetime.end.p0(i64 8, ptr nonnull %5) #11
  call void @llvm.lifetime.end.p0(i64 48, ptr nonnull %4) #11
  ret i32 %.0
}